target datalayout = "e-m:e-p270:32:32-p271:32:32-p272:64:64-i64:64-i128:128-f80:128-n8:16:32:64-S128"
target triple = "x86_64-pc-linux-gnu"

; Function Attrs: alwaysinline mustprogress nounwind uwtable
define internal noundef i32 @_ZL14_mm_cvtss_si32Dv4_f(<4 x float> noundef %0) #9 {
  %2 = alloca <4 x float>, align 16
  store <4 x float> %0, ptr %2, align 16, !tbaa !16
  %3 = load <4 x float>, ptr %2, align 16, !tbaa !16
  %4 = call i32 @llvm.x86.sse.cvtss2si(<4 x float> %3)
  ret i32 %4
}

; Function Attrs: alwaysinline mustprogress nounwind uwtable
define internal noundef <4 x float> @_ZL10_mm_set_ssf(float noundef %0) #9 {
  %2 = alloca float, align 4
  %3 = alloca <4 x float>, align 16
  store float %0, ptr %2, align 4, !tbaa !12
  %4 = load float, ptr %2, align 4, !tbaa !12
  %5 = insertelement <4 x float> poison, float %4, i32 0
  %6 = insertelement <4 x float> %5, float 0.000000e+00, i32 1
  %7 = insertelement <4 x float> %6, float 0.000000e+00, i32 2
  %8 = insertelement <4 x float> %7, float 0.000000e+00, i32 3
  store <4 x float> %8, ptr %3, align 16, !tbaa !16
  %9 = load <4 x float>, ptr %3, align 16, !tbaa !16
  ret <4 x float> %9
}

; Function Attrs: inlinehint mustprogress nounwind uwtable
define linkonce_odr noundef nonnull align 2 dereferenceable(2) ptr @_ZSt3maxItERKT_S2_S2_(ptr noundef nonnull align 2 dereferenceable(2) %0, ptr noundef nonnull align 2 dereferenceable(2) %1) #3 comdat {
  %3 = alloca ptr, align 8
  %4 = alloca ptr, align 8
  %5 = alloca ptr, align 8
  store ptr %0, ptr %4, align 8, !tbaa !21
  store ptr %1, ptr %5, align 8, !tbaa !21
  %6 = load ptr, ptr %4, align 8, !tbaa !21
  %7 = load i16, ptr %6, align 2, !tbaa !14
  %8 = zext i16 %7 to i32
  %9 = load ptr, ptr %5, align 8, !tbaa !21
  %10 = load i16, ptr %9, align 2, !tbaa !14
  %11 = zext i16 %10 to i32
  %12 = icmp slt i32 %8, %11
  br i1 %12, label %13, label %15

13:                                               ; preds = %2
  %14 = load ptr, ptr %5, align 8, !tbaa !21
  store ptr %14, ptr %3, align 8
  br label %17

15:                                               ; preds = %2
  %16 = load ptr, ptr %4, align 8, !tbaa !21
  store ptr %16, ptr %3, align 8
  br label %17

17:                                               ; preds = %15, %13
  %18 = load ptr, ptr %3, align 8
  ret ptr %18
}

; Function Attrs: inlinehint mustprogress nounwind uwtable
define linkonce_odr noundef nonnull align 2 dereferenceable(2) ptr @_ZSt3minItERKT_S2_S2_(ptr noundef nonnull align 2 dereferenceable(2) %0, ptr noundef nonnull align 2 dereferenceable(2) %1) #3 comdat {
  %3 = alloca ptr, align 8
  %4 = alloca ptr, align 8
  %5 = alloca ptr, align 8
  store ptr %0, ptr %4, align 8, !tbaa !21
  store ptr %1, ptr %5, align 8, !tbaa !21
  %6 = load ptr, ptr %5, align 8, !tbaa !21
  %7 = load i16, ptr %6, align 2, !tbaa !14
  %8 = zext i16 %7 to i32
  %9 = load ptr, ptr %4, align 8, !tbaa !21
  %10 = load i16, ptr %9, align 2, !tbaa !14
  %11 = zext i16 %10 to i32
  %12 = icmp slt i32 %8, %11
  br i1 %12, label %13, label %15

13:                                               ; preds = %2
  %14 = load ptr, ptr %5, align 8, !tbaa !21
  store ptr %14, ptr %3, align 8
  br label %17

15:                                               ; preds = %2
  %16 = load ptr, ptr %4, align 8, !tbaa !21
  store ptr %16, ptr %3, align 8
  br label %17

17:                                               ; preds = %15, %13
  %18 = load ptr, ptr %3, align 8
  ret ptr %18
}

; Function Attrs: inlinehint mustprogress uwtable
define internal noundef i32 @_ZL7cvRoundf(float noundef %0) #2 {
  %2 = alloca float, align 4
  %3 = alloca <4 x float>, align 16
  store float %0, ptr %2, align 4, !tbaa !12
  call void @llvm.lifetime.start.p0(i64 16, ptr %3) #19
  %4 = load float, ptr %2, align 4, !tbaa !12
  %5 = call noundef <4 x float> @_ZL10_mm_set_ssf(float noundef %4)
  store <4 x float> %5, ptr %3, align 16, !tbaa !16
  %6 = load <4 x float>, ptr %3, align 16, !tbaa !16
  %7 = call noundef i32 @_ZL14_mm_cvtss_si32Dv4_f(<4 x float> noundef %6)
  call void @llvm.lifetime.end.p0(i64 16, ptr %3) #19
  ret i32 %7
}

; Function Attrs: mustprogress uwtable
define hidden void @_ZN2cv6xphoto20calculateChannelSumsERmS1_S1_Ptif(ptr noundef nonnull align 8 dereferenceable(8) %0, ptr noundef nonnull align 8 dereferenceable(8) %1, ptr noundef nonnull align 8 dereferenceable(8) %2, ptr noundef %3, i32 noundef %4, float noundef %5) #0 {
  %7 = alloca ptr, align 8
  %8 = alloca ptr, align 8
  %9 = alloca ptr, align 8
  %10 = alloca ptr, align 8
  %11 = alloca i32, align 4
  %12 = alloca float, align 4
  %13 = alloca i32, align 4
  %14 = alloca i32, align 4
  %15 = alloca i32, align 4
  %16 = alloca i32, align 4
  store ptr %0, ptr %7, align 8, !tbaa !19
  store ptr %1, ptr %8, align 8, !tbaa !19
  store ptr %2, ptr %9, align 8, !tbaa !19
  store ptr %3, ptr %10, align 8, !tbaa !21
  store i32 %4, ptr %11, align 4, !tbaa !10
  store float %5, ptr %12, align 4, !tbaa !12
  %17 = load ptr, ptr %9, align 8, !tbaa !19
  store i64 0, ptr %17, align 8, !tbaa !23
  %18 = load ptr, ptr %8, align 8, !tbaa !19
  store i64 0, ptr %18, align 8, !tbaa !23
  %19 = load ptr, ptr %7, align 8, !tbaa !19
  store i64 0, ptr %19, align 8, !tbaa !23
  call void @llvm.lifetime.start.p0(i64 4, ptr %13) #19
  %20 = load float, ptr %12, align 4, !tbaa !12
  %21 = fmul float %20, 6.553500e+04
  %22 = call noundef i32 @_ZL7cvRoundf(float noundef %21)
  store i32 %22, ptr %13, align 4, !tbaa !10
  call void @llvm.lifetime.start.p0(i64 4, ptr %14) #19
  store i32 0, ptr %14, align 4, !tbaa !10
  call void @llvm.lifetime.start.p0(i64 4, ptr %15) #19
  call void @llvm.lifetime.start.p0(i64 4, ptr %16) #19
  br label %23

23:                                               ; preds = %103, %6
  %24 = load i32, ptr %14, align 4, !tbaa !10
  %25 = load i32, ptr %11, align 4, !tbaa !10
  %26 = icmp slt i32 %24, %25
  br i1 %26, label %27, label %106

27:                                               ; preds = %23
  %28 = load ptr, ptr %10, align 8, !tbaa !21
  %29 = load i32, ptr %14, align 4, !tbaa !10
  %30 = sext i32 %29 to i64
  %31 = getelementptr inbounds i16, ptr %28, i64 %30
  %32 = load ptr, ptr %10, align 8, !tbaa !21
  %33 = load i32, ptr %14, align 4, !tbaa !10
  %34 = add nsw i32 %33, 1
  %35 = sext i32 %34 to i64
  %36 = getelementptr inbounds i16, ptr %32, i64 %35
  %37 = load ptr, ptr %10, align 8, !tbaa !21
  %38 = load i32, ptr %14, align 4, !tbaa !10
  %39 = add nsw i32 %38, 2
  %40 = sext i32 %39 to i64
  %41 = getelementptr inbounds i16, ptr %37, i64 %40
  %42 = call noundef nonnull align 2 dereferenceable(2) ptr @_ZSt3minItERKT_S2_S2_(ptr noundef nonnull align 2 dereferenceable(2) %36, ptr noundef nonnull align 2 dereferenceable(2) %41)
  %43 = call noundef nonnull align 2 dereferenceable(2) ptr @_ZSt3minItERKT_S2_S2_(ptr noundef nonnull align 2 dereferenceable(2) %31, ptr noundef nonnull align 2 dereferenceable(2) %42)
  %44 = load i16, ptr %43, align 2, !tbaa !14
  %45 = zext i16 %44 to i32
  store i32 %45, ptr %15, align 4, !tbaa !10
  %46 = load ptr, ptr %10, align 8, !tbaa !21
  %47 = load i32, ptr %14, align 4, !tbaa !10
  %48 = sext i32 %47 to i64
  %49 = getelementptr inbounds i16, ptr %46, i64 %48
  %50 = load ptr, ptr %10, align 8, !tbaa !21
  %51 = load i32, ptr %14, align 4, !tbaa !10
  %52 = add nsw i32 %51, 1
  %53 = sext i32 %52 to i64
  %54 = getelementptr inbounds i16, ptr %50, i64 %53
  %55 = load ptr, ptr %10, align 8, !tbaa !21
  %56 = load i32, ptr %14, align 4, !tbaa !10
  %57 = add nsw i32 %56, 2
  %58 = sext i32 %57 to i64
  %59 = getelementptr inbounds i16, ptr %55, i64 %58
  %60 = call noundef nonnull align 2 dereferenceable(2) ptr @_ZSt3maxItERKT_S2_S2_(ptr noundef nonnull align 2 dereferenceable(2) %54, ptr noundef nonnull align 2 dereferenceable(2) %59)
  %61 = call noundef nonnull align 2 dereferenceable(2) ptr @_ZSt3maxItERKT_S2_S2_(ptr noundef nonnull align 2 dereferenceable(2) %49, ptr noundef nonnull align 2 dereferenceable(2) %60)
  %62 = load i16, ptr %61, align 2, !tbaa !14
  %63 = zext i16 %62 to i32
  store i32 %63, ptr %16, align 4, !tbaa !10
  %64 = load i32, ptr %16, align 4, !tbaa !10
  %65 = load i32, ptr %15, align 4, !tbaa !10
  %66 = sub i32 %64, %65
  %67 = mul i32 %66, 65535
  %68 = load i32, ptr %13, align 4, !tbaa !10
  %69 = load i32, ptr %16, align 4, !tbaa !10
  %70 = mul i32 %68, %69
  %71 = icmp ugt i32 %67, %70
  br i1 %71, label %72, label %73

72:                                               ; preds = %27
  br label %103

73:                                               ; preds = %27
  %74 = load ptr, ptr %10, align 8, !tbaa !21
  %75 = load i32, ptr %14, align 4, !tbaa !10
  %76 = sext i32 %75 to i64
  %77 = getelementptr inbounds i16, ptr %74, i64 %76
  %78 = load i16, ptr %77, align 2, !tbaa !14
  %79 = zext i16 %78 to i64
  %80 = load ptr, ptr %7, align 8, !tbaa !19
  %81 = load i64, ptr %80, align 8, !tbaa !23
  %82 = add i64 %81, %79
  store i64 %82, ptr %80, align 8, !tbaa !23
  %83 = load ptr, ptr %10, align 8, !tbaa !21
  %84 = load i32, ptr %14, align 4, !tbaa !10
  %85 = add nsw i32 %84, 1
  %86 = sext i32 %85 to i64
  %87 = getelementptr inbounds i16, ptr %83, i64 %86
  %88 = load i16, ptr %87, align 2, !tbaa !14
  %89 = zext i16 %88 to i64
  %90 = load ptr, ptr %8, align 8, !tbaa !19
  %91 = load i64, ptr %90, align 8, !tbaa !23
  %92 = add i64 %91, %89
  store i64 %92, ptr %90, align 8, !tbaa !23
  %93 = load ptr, ptr %10, align 8, !tbaa !21
  %94 = load i32, ptr %14, align 4, !tbaa !10
  %95 = add nsw i32 %94, 2
  %96 = sext i32 %95 to i64
  %97 = getelementptr inbounds i16, ptr %93, i64 %96
  %98 = load i16, ptr %97, align 2, !tbaa !14
  %99 = zext i16 %98 to i64
  %100 = load ptr, ptr %9, align 8, !tbaa !19
  %101 = load i64, ptr %100, align 8, !tbaa !23
  %102 = add i64 %101, %99
  store i64 %102, ptr %100, align 8, !tbaa !23
  br label %103

103:                                              ; preds = %73, %72
  %104 = load i32, ptr %14, align 4, !tbaa !10
  %105 = add nsw i32 %104, 3
  store i32 %105, ptr %14, align 4, !tbaa !10
  br label %23, !llvm.loop !25

106:                                              ; preds = %23
  call void @llvm.lifetime.end.p0(i64 4, ptr %16) #19
  call void @llvm.lifetime.end.p0(i64 4, ptr %15) #19
  call void @llvm.lifetime.end.p0(i64 4, ptr %14) #19
  call void @llvm.lifetime.end.p0(i64 4, ptr %13) #19
  ret void
}