; Function Attrs: mustprogress nofree norecurse nosync nounwind memory(argmem: readwrite) uwtable
define hidden void @_ZN2cv6xphoto20calculateChannelSumsERmS1_S1_Ptif(ptr noundef nonnull align 8 captures(none) dereferenceable(8) initializes((0, 8)) %0, ptr noundef nonnull align 8 captures(none) dereferenceable(8) initializes((0, 8)) %1, ptr noundef nonnull align 8 captures(none) dereferenceable(8) initializes((0, 8)) %2, ptr noundef readonly captures(none) %3, i32 noundef %4, float noundef %5) local_unnamed_addr #0 {
  store i64 0, ptr %2, align 8, !tbaa !10
  store i64 0, ptr %1, align 8, !tbaa !10
  store i64 0, ptr %0, align 8, !tbaa !10
  %7 = fmul float %5, 6.553500e+04
  %8 = insertelement <4 x float> poison, float %7, i64 0
  %9 = tail call noundef i32 @llvm.x86.sse.cvtss2si(<4 x float> %8)
  %10 = icmp sgt i32 %4, 0
  br i1 %10, label %.lr.ph.preheader, label %._crit_edge

.lr.ph.preheader:                                 ; preds = %6
  %11 = zext nneg i32 %4 to i64
  br label %.lr.ph

.lr.ph:                                           ; preds = %.lr.ph.preheader, %38
  %indvars.iv = phi i64 [ 0, %.lr.ph.preheader ], [ %indvars.iv.next, %38 ]
  %12 = getelementptr inbounds nuw i16, ptr %3, i64 %indvars.iv
  %13 = getelementptr inbounds nuw i8, ptr %12, i64 2
  %14 = getelementptr inbounds nuw i8, ptr %12, i64 4
  %15 = load i16, ptr %14, align 2, !tbaa !12
  %16 = load i16, ptr %13, align 2, !tbaa !12
  %17 = tail call i16 @llvm.umin.i16(i16 %15, i16 %16)
  %18 = load i16, ptr %12, align 2, !tbaa !12
  %19 = tail call i16 @llvm.umin.i16(i16 %17, i16 %18)
  %20 = zext i16 %19 to i32
  %21 = tail call i16 @llvm.umax.i16(i16 %16, i16 %15)
  %22 = tail call i16 @llvm.umax.i16(i16 %18, i16 %21)
  %23 = zext i16 %22 to i32
  %24 = sub nsw i32 %23, %20
  %25 = mul i32 %24, 65535
  %26 = mul i32 %9, %23
  %27 = icmp ugt i32 %25, %26
  br i1 %27, label %38, label %28

28:                                               ; preds = %.lr.ph
  %29 = zext i16 %18 to i64
  %30 = load i64, ptr %0, align 8, !tbaa !10
  %31 = add i64 %30, %29
  store i64 %31, ptr %0, align 8, !tbaa !10
  %32 = zext i16 %16 to i64
  %33 = load i64, ptr %1, align 8, !tbaa !10
  %34 = add i64 %33, %32
  store i64 %34, ptr %1, align 8, !tbaa !10
  %35 = zext i16 %15 to i64
  %36 = load i64, ptr %2, align 8, !tbaa !10
  %37 = add i64 %36, %35
  store i64 %37, ptr %2, align 8, !tbaa !10
  br label %38

38:                                               ; preds = %.lr.ph, %28
  %indvars.iv.next = add nuw nsw i64 %indvars.iv, 3
  %39 = icmp samesign ult i64 %indvars.iv.next, %11
  br i1 %39, label %.lr.ph, label %._crit_edge, !llvm.loop !14

._crit_edge:                                      ; preds = %38, %6
  ret void
}